; Function Attrs: mustprogress nounwind uwtable
define internal fastcc void @"_ZZZN17grpc_event_engine12experimental12AsyncConnect10OnWritableEN4absl12lts_202308026StatusEENK3$_0clEvENUlvE_D2Ev"(ptr noundef nonnull align 16 dereferenceable(48) %this) unnamed_addr #5 align 2 personality ptr @__gxx_personality_v0 {
entry:
  %0 = getelementptr inbounds i8, ptr %this, i64 16
  %manager_.i.i.i = getelementptr inbounds i8, ptr %this, i64 32
  %1 = load ptr, ptr %manager_.i.i.i, align 16
  tail call void %1(i1 noundef zeroext true, ptr noundef nonnull %0, ptr noundef nonnull %0) #26
  %2 = load i64, ptr %this, align 16
  %cmp.i.i.i.i = icmp eq i64 %2, 0
  br i1 %cmp.i.i.i.i, label %_ZN4absl12lts_202308026StatusD2Ev.exit.i.i, label %if.else.i.i

_ZN4absl12lts_202308026StatusD2Ev.exit.i.i:       ; preds = %entry
  %3 = getelementptr inbounds i8, ptr %this, i64 8
  %4 = load ptr, ptr %3, align 8
  %cmp.not.i.i.i = icmp eq ptr %4, null
  br i1 %cmp.not.i.i.i, label %_ZNSt10unique_ptrIN17grpc_event_engine12experimental11EventEngine8EndpointESt14default_deleteIS3_EED2Ev.exit.i.i, label %_ZNKSt14default_deleteIN17grpc_event_engine12experimental11EventEngine8EndpointEEclEPS3_.exit.i.i.i

_ZNKSt14default_deleteIN17grpc_event_engine12experimental11EventEngine8EndpointEEclEPS3_.exit.i.i.i: ; preds = %_ZN4absl12lts_202308026StatusD2Ev.exit.i.i
  %vtable.i.i.i.i = load ptr, ptr %4, align 8
  %vfn.i.i.i.i = getelementptr inbounds i8, ptr %vtable.i.i.i.i, i64 8
  %5 = load ptr, ptr %vfn.i.i.i.i, align 8
  tail call void %5(ptr noundef nonnull align 8 dereferenceable(8) %4) #26
  br label %_ZNSt10unique_ptrIN17grpc_event_engine12experimental11EventEngine8EndpointESt14default_deleteIS3_EED2Ev.exit.i.i

_ZNSt10unique_ptrIN17grpc_event_engine12experimental11EventEngine8EndpointESt14default_deleteIS3_EED2Ev.exit.i.i: ; preds = %_ZNKSt14default_deleteIN17grpc_event_engine12experimental11EventEngine8EndpointEEclEPS3_.exit.i.i.i, %_ZN4absl12lts_202308026StatusD2Ev.exit.i.i
  store ptr null, ptr %3, align 8
  br label %_ZN4absl12lts_202308028StatusOrISt10unique_ptrIN17grpc_event_engine12experimental11EventEngine8EndpointESt14default_deleteIS6_EEED2Ev.exit

if.else.i.i:                                      ; preds = %entry
  %and.i.i.i1.i.i = and i64 %2, 1
  %cmp.i.i.i2.i.i = icmp eq i64 %and.i.i.i1.i.i, 0
  br i1 %cmp.i.i.i2.i.i, label %_ZN4absl12lts_202308028StatusOrISt10unique_ptrIN17grpc_event_engine12experimental11EventEngine8EndpointESt14default_deleteIS6_EEED2Ev.exit, label %if.then.i.i3.i.i

if.then.i.i3.i.i:                                 ; preds = %if.else.i.i
  invoke void @_ZN4absl12lts_202308026Status15UnrefNonInlinedEm(i64 noundef %2)
          to label %_ZN4absl12lts_202308028StatusOrISt10unique_ptrIN17grpc_event_engine12experimental11EventEngine8EndpointESt14default_deleteIS6_EEED2Ev.exit unwind label %terminate.lpad.i4.i.i

terminate.lpad.i4.i.i:                            ; preds = %if.then.i.i3.i.i
  %6 = landingpad { ptr, i32 }
          catch ptr null
  %7 = extractvalue { ptr, i32 } %6, 0
  tail call void @__clang_call_terminate(ptr %7) #27
  unreachable

_ZN4absl12lts_202308028StatusOrISt10unique_ptrIN17grpc_event_engine12experimental11EventEngine8EndpointESt14default_deleteIS6_EEED2Ev.exit: ; preds = %_ZNSt10unique_ptrIN17grpc_event_engine12experimental11EventEngine8EndpointESt14default_deleteIS3_EED2Ev.exit.i.i, %if.else.i.i, %if.then.i.i3.i.i
  ret void
}